target datalayout = "e-m:e-p270:32:32-p271:32:32-p272:64:64-i64:64-i128:128-f80:128-n8:16:32:64-S128"
target triple = "x86_64-pc-linux-gnu"

%"class.Ipopt::GenTMatrix" = type <{ %"class.Ipopt::Matrix.base", [3 x i8], ptr, ptr, i8, [7 x i8] }>
%"class.Ipopt::Matrix.base" = type <{ %"class.Ipopt::TaggedObject", %"class.Ipopt::SmartPtr", i32, i8 }>
%"class.Ipopt::TaggedObject" = type { %"class.Ipopt::ReferencedObject.base", %"class.Ipopt::Subject", i32, i32 }
%"class.Ipopt::ReferencedObject.base" = type <{ ptr, i32 }>
%"class.Ipopt::Subject" = type { ptr, %"class.std::vector" }
%"class.std::vector" = type { %"struct.std::_Vector_base" }
%"struct.std::_Vector_base" = type { %"struct.std::_Vector_base<Ipopt::Observer *, std::allocator<Ipopt::Observer *>>::_Vector_impl" }
%"struct.std::_Vector_base<Ipopt::Observer *, std::allocator<Ipopt::Observer *>>::_Vector_impl" = type { %"struct.std::_Vector_base<Ipopt::Observer *, std::allocator<Ipopt::Observer *>>::_Vector_impl_data" }
%"struct.std::_Vector_base<Ipopt::Observer *, std::allocator<Ipopt::Observer *>>::_Vector_impl_data" = type { ptr, ptr, ptr }
%"class.Ipopt::SmartPtr" = type { ptr }
%"class.Ipopt::DenseVector" = type { %"class.Ipopt::Vector.base", ptr, ptr, ptr, i8, i8, double }
%"class.Ipopt::Vector.base" = type <{ %"class.Ipopt::TaggedObject", %"class.Ipopt::SmartPtr.0", %"class.Ipopt::CachedResults", i32, [4 x i8], double, i32, [4 x i8], double, i32, [4 x i8], double, i32, [4 x i8], double, i32, [4 x i8], double, i32, [4 x i8], double, i32, [4 x i8], double, i32, i8 }>
%"class.Ipopt::SmartPtr.0" = type { ptr }
%"class.Ipopt::CachedResults" = type { ptr, i32, ptr }
%"class.Ipopt::GenTMatrixSpace" = type { %"class.Ipopt::MatrixSpace.base", i32, ptr, ptr }
%"class.Ipopt::MatrixSpace.base" = type { %"class.Ipopt::ReferencedObject.base", i32, i32 }
%"class.Ipopt::VectorSpace" = type { %"class.Ipopt::ReferencedObject.base", i32 }

; Function Attrs: mustprogress nounwind uwtable
define linkonce_odr noundef i32 @_ZNK5Ipopt11VectorSpace3DimEv(ptr noundef nonnull align 8 dereferenceable(16) %0) #1 comdat align 2 {
  %2 = alloca ptr, align 8
  store ptr %0, ptr %2, align 8
  %3 = load ptr, ptr %2, align 8
  %4 = getelementptr inbounds %"class.Ipopt::VectorSpace", ptr %3, i32 0, i32 1
  %5 = load i32, ptr %4, align 4
  ret i32 %5
}

; Function Attrs: mustprogress uwtable
define linkonce_odr noundef ptr @_ZNK5Ipopt16DenseVectorSpace23AllocateInternalStorageEv(ptr noundef nonnull align 8 dereferenceable(160) %0) #0 comdat align 2 {
  %2 = alloca ptr, align 8
  %3 = alloca ptr, align 8
  store ptr %0, ptr %3, align 8
  %4 = load ptr, ptr %3, align 8
  %5 = call noundef i32 @_ZNK5Ipopt11VectorSpace3DimEv(ptr noundef nonnull align 8 dereferenceable(16) %4)
  %6 = icmp sgt i32 %5, 0
  br i1 %6, label %7, label %15

7:                                                ; preds = %1
  %8 = call noundef i32 @_ZNK5Ipopt11VectorSpace3DimEv(ptr noundef nonnull align 8 dereferenceable(16) %4)
  %9 = sext i32 %8 to i64
  %10 = call { i64, i1 } @llvm.umul.with.overflow.i64(i64 %9, i64 8)
  %11 = extractvalue { i64, i1 } %10, 1
  %12 = extractvalue { i64, i1 } %10, 0
  %13 = select i1 %11, i64 -1, i64 %12
  %14 = call noalias noundef nonnull ptr @_Znam(i64 noundef %13) #12
  store ptr %14, ptr %2, align 8
  br label %16

15:                                               ; preds = %1
  store ptr null, ptr %2, align 8
  br label %16

16:                                               ; preds = %15, %7
  %17 = load ptr, ptr %2, align 8
  ret ptr %17
}

; Function Attrs: mustprogress uwtable
define linkonce_odr noundef ptr @_ZN5Ipopt11DenseVector16values_allocatedEv(ptr noundef nonnull align 8 dereferenceable(248) %0) #0 comdat align 2 {
  %2 = alloca ptr, align 8
  store ptr %0, ptr %2, align 8
  %3 = load ptr, ptr %2, align 8
  %4 = getelementptr inbounds %"class.Ipopt::DenseVector", ptr %3, i32 0, i32 2
  %5 = load ptr, ptr %4, align 8
  %6 = icmp eq ptr %5, null
  br i1 %6, label %7, label %12

7:                                                ; preds = %1
  %8 = getelementptr inbounds %"class.Ipopt::DenseVector", ptr %3, i32 0, i32 1
  %9 = load ptr, ptr %8, align 8
  %10 = call noundef ptr @_ZNK5Ipopt16DenseVectorSpace23AllocateInternalStorageEv(ptr noundef nonnull align 8 dereferenceable(160) %9)
  %11 = getelementptr inbounds %"class.Ipopt::DenseVector", ptr %3, i32 0, i32 2
  store ptr %10, ptr %11, align 8
  br label %12

12:                                               ; preds = %7, %1
  %13 = getelementptr inbounds %"class.Ipopt::DenseVector", ptr %3, i32 0, i32 2
  %14 = load ptr, ptr %13, align 8
  ret ptr %14
}

; Function Attrs: mustprogress nounwind uwtable
define linkonce_odr noundef ptr @_ZNK5Ipopt15GenTMatrixSpace5JcolsEv(ptr noundef nonnull align 8 dereferenceable(40) %0) #1 comdat align 2 {
  %2 = alloca ptr, align 8
  store ptr %0, ptr %2, align 8
  %3 = load ptr, ptr %2, align 8
  %4 = getelementptr inbounds %"class.Ipopt::GenTMatrixSpace", ptr %3, i32 0, i32 2
  %5 = load ptr, ptr %4, align 8
  ret ptr %5
}

; Function Attrs: mustprogress nounwind uwtable
define linkonce_odr noundef ptr @_ZNK5Ipopt15GenTMatrixSpace5IrowsEv(ptr noundef nonnull align 8 dereferenceable(40) %0) #1 comdat align 2 {
  %2 = alloca ptr, align 8
  store ptr %0, ptr %2, align 8
  %3 = load ptr, ptr %2, align 8
  %4 = getelementptr inbounds %"class.Ipopt::GenTMatrixSpace", ptr %3, i32 0, i32 3
  %5 = load ptr, ptr %4, align 8
  ret ptr %5
}

; Function Attrs: mustprogress nounwind uwtable
define linkonce_odr noundef i32 @_ZNK5Ipopt15GenTMatrixSpace8NonzerosEv(ptr noundef nonnull align 8 dereferenceable(40) %0) #1 comdat align 2 {
  %2 = alloca ptr, align 8
  store ptr %0, ptr %2, align 8
  %3 = load ptr, ptr %2, align 8
  %4 = getelementptr inbounds %"class.Ipopt::GenTMatrixSpace", ptr %3, i32 0, i32 1
  %5 = load i32, ptr %4, align 4
  ret i32 %5
}

; Function Attrs: mustprogress nounwind uwtable
define linkonce_odr noundef ptr @_ZNK5Ipopt11DenseVector6ValuesEv(ptr noundef nonnull align 8 dereferenceable(248) %0) #1 comdat align 2 {
  %2 = alloca ptr, align 8
  store ptr %0, ptr %2, align 8
  %3 = load ptr, ptr %2, align 8
  %4 = getelementptr inbounds %"class.Ipopt::DenseVector", ptr %3, i32 0, i32 2
  %5 = load ptr, ptr %4, align 8
  ret ptr %5
}

; Function Attrs: mustprogress nounwind uwtable
define linkonce_odr noundef double @_ZNK5Ipopt11DenseVector6ScalarEv(ptr noundef nonnull align 8 dereferenceable(248) %0) #1 comdat align 2 {
  %2 = alloca ptr, align 8
  store ptr %0, ptr %2, align 8
  %3 = load ptr, ptr %2, align 8
  %4 = getelementptr inbounds %"class.Ipopt::DenseVector", ptr %3, i32 0, i32 6
  %5 = load double, ptr %4, align 8
  ret double %5
}

; Function Attrs: mustprogress nounwind uwtable
define linkonce_odr noundef zeroext i1 @_ZNK5Ipopt11DenseVector13IsHomogeneousEv(ptr noundef nonnull align 8 dereferenceable(248) %0) #1 comdat align 2 {
  %2 = alloca ptr, align 8
  store ptr %0, ptr %2, align 8
  %3 = load ptr, ptr %2, align 8
  %4 = getelementptr inbounds %"class.Ipopt::DenseVector", ptr %3, i32 0, i32 5
  %5 = load i8, ptr %4, align 1
  %6 = trunc i8 %5 to i1
  ret i1 %6
}

; Function Attrs: mustprogress uwtable
define linkonce_odr noundef ptr @_ZN5Ipopt11DenseVector6ValuesEv(ptr noundef nonnull align 8 dereferenceable(248) %0) #0 comdat align 2 {
  %2 = alloca ptr, align 8
  store ptr %0, ptr %2, align 8
  %3 = load ptr, ptr %2, align 8
  %4 = getelementptr inbounds %"class.Ipopt::DenseVector", ptr %3, i32 0, i32 4
  %5 = load i8, ptr %4, align 8
  %6 = trunc i8 %5 to i1
  br i1 %6, label %7, label %12

7:                                                ; preds = %1
  %8 = getelementptr inbounds %"class.Ipopt::DenseVector", ptr %3, i32 0, i32 5
  %9 = load i8, ptr %8, align 1
  %10 = trunc i8 %9 to i1
  br i1 %10, label %11, label %12

11:                                               ; preds = %7
  call void @_ZN5Ipopt11DenseVector22set_values_from_scalarEv(ptr noundef nonnull align 8 dereferenceable(248) %3)
  br label %12

12:                                               ; preds = %11, %7, %1
  call void @_ZN5Ipopt12TaggedObject13ObjectChangedEv(ptr noundef nonnull align 8 dereferenceable(56) %3)
  %13 = getelementptr inbounds %"class.Ipopt::DenseVector", ptr %3, i32 0, i32 4
  store i8 1, ptr %13, align 8
  %14 = getelementptr inbounds %"class.Ipopt::DenseVector", ptr %3, i32 0, i32 5
  store i8 0, ptr %14, align 1
  %15 = call noundef ptr @_ZN5Ipopt11DenseVector16values_allocatedEv(ptr noundef nonnull align 8 dereferenceable(248) %3)
  %16 = getelementptr inbounds %"class.Ipopt::DenseVector", ptr %3, i32 0, i32 2
  %17 = load ptr, ptr %16, align 8
  ret ptr %17
}

; Function Attrs: mustprogress uwtable
define linkonce_odr noundef ptr @_ZNK5Ipopt10GenTMatrix5JcolsEv(ptr noundef nonnull align 8 dereferenceable(89) %0) #0 comdat align 2 {
  %2 = alloca ptr, align 8
  store ptr %0, ptr %2, align 8
  %3 = load ptr, ptr %2, align 8
  %4 = getelementptr inbounds %"class.Ipopt::GenTMatrix", ptr %3, i32 0, i32 2
  %5 = load ptr, ptr %4, align 8
  %6 = call noundef ptr @_ZNK5Ipopt15GenTMatrixSpace5JcolsEv(ptr noundef nonnull align 8 dereferenceable(40) %5)
  ret ptr %6
}

; Function Attrs: mustprogress uwtable
define linkonce_odr noundef ptr @_ZNK5Ipopt10GenTMatrix5IrowsEv(ptr noundef nonnull align 8 dereferenceable(89) %0) #0 comdat align 2 {
  %2 = alloca ptr, align 8
  store ptr %0, ptr %2, align 8
  %3 = load ptr, ptr %2, align 8
  %4 = getelementptr inbounds %"class.Ipopt::GenTMatrix", ptr %3, i32 0, i32 2
  %5 = load ptr, ptr %4, align 8
  %6 = call noundef ptr @_ZNK5Ipopt15GenTMatrixSpace5IrowsEv(ptr noundef nonnull align 8 dereferenceable(40) %5)
  ret ptr %6
}

; Function Attrs: mustprogress uwtable
define linkonce_odr noundef i32 @_ZNK5Ipopt10GenTMatrix8NonzerosEv(ptr noundef nonnull align 8 dereferenceable(89) %0) #0 comdat align 2 {
  %2 = alloca ptr, align 8
  store ptr %0, ptr %2, align 8
  %3 = load ptr, ptr %2, align 8
  %4 = getelementptr inbounds %"class.Ipopt::GenTMatrix", ptr %3, i32 0, i32 2
  %5 = load ptr, ptr %4, align 8
  %6 = call noundef i32 @_ZNK5Ipopt15GenTMatrixSpace8NonzerosEv(ptr noundef nonnull align 8 dereferenceable(40) %5)
  ret i32 %6
}

; Function Attrs: mustprogress uwtable
define linkonce_odr void @_ZN5Ipopt6Vector3SetEd(ptr noundef nonnull align 8 dereferenceable(205) %0, double noundef %1) #0 comdat align 2 {
  %3 = alloca ptr, align 8
  %4 = alloca double, align 8
  store ptr %0, ptr %3, align 8
  store double %1, ptr %4, align 8
  %5 = load ptr, ptr %3, align 8
  %6 = load double, ptr %4, align 8
  %7 = load ptr, ptr %5, align 8
  %8 = getelementptr inbounds ptr, ptr %7, i64 9
  %9 = load ptr, ptr %8, align 8
  call void %9(ptr noundef nonnull align 8 dereferenceable(205) %5, double noundef %6)
  call void @_ZN5Ipopt12TaggedObject13ObjectChangedEv(ptr noundef nonnull align 8 dereferenceable(56) %5)
  ret void
}

; Function Attrs: mustprogress uwtable
define void @_ZNK5Ipopt10GenTMatrix19TransMultVectorImplEdRKNS_6VectorEdRS1_(ptr noundef nonnull align 8 dereferenceable(89) %0, double noundef %1, ptr noundef nonnull align 8 dereferenceable(205) %2, double noundef %3, ptr noundef nonnull align 8 dereferenceable(205) %4) unnamed_addr #0 align 2 {
  %6 = alloca ptr, align 8
  %7 = alloca double, align 8
  %8 = alloca ptr, align 8
  %9 = alloca double, align 8
  %10 = alloca ptr, align 8
  %11 = alloca ptr, align 8
  %12 = alloca ptr, align 8
  %13 = alloca ptr, align 8
  %14 = alloca ptr, align 8
  %15 = alloca ptr, align 8
  %16 = alloca ptr, align 8
  %17 = alloca double, align 8
  %18 = alloca i32, align 4
  %19 = alloca ptr, align 8
  %20 = alloca i32, align 4
  store ptr %0, ptr %6, align 8
  store double %1, ptr %7, align 8
  store ptr %2, ptr %8, align 8
  store double %3, ptr %9, align 8
  store ptr %4, ptr %10, align 8
  %21 = load ptr, ptr %6, align 8
  %22 = load double, ptr %9, align 8
  %23 = fcmp une double %22, 0.000000e+00
  br i1 %23, label %24, label %27

24:                                               ; preds = %5
  %25 = load ptr, ptr %10, align 8
  %26 = load double, ptr %9, align 8
  call void @_ZN5Ipopt6Vector4ScalEd(ptr noundef nonnull align 8 dereferenceable(205) %25, double noundef %26)
  br label %29

27:                                               ; preds = %5
  %28 = load ptr, ptr %10, align 8
  call void @_ZN5Ipopt6Vector3SetEd(ptr noundef nonnull align 8 dereferenceable(205) %28, double noundef 0.000000e+00)
  br label %29

29:                                               ; preds = %27, %24
  %30 = call noundef i32 @_ZNK5Ipopt10GenTMatrix8NonzerosEv(ptr noundef nonnull align 8 dereferenceable(89) %21)
  %31 = icmp eq i32 %30, 0
  br i1 %31, label %32, label %33

32:                                               ; preds = %29
  br label %118

33:                                               ; preds = %29
  %34 = load ptr, ptr %8, align 8
  store ptr %34, ptr %11, align 8
  %35 = load ptr, ptr %10, align 8
  store ptr %35, ptr %12, align 8
  %36 = load ptr, ptr %11, align 8
  %37 = icmp ne ptr %36, null
  br i1 %37, label %38, label %118

38:                                               ; preds = %33
  %39 = load ptr, ptr %12, align 8
  %40 = icmp ne ptr %39, null
  br i1 %40, label %41, label %118

41:                                               ; preds = %38
  %42 = call noundef ptr @_ZNK5Ipopt10GenTMatrix5IrowsEv(ptr noundef nonnull align 8 dereferenceable(89) %21)
  store ptr %42, ptr %13, align 8
  %43 = call noundef ptr @_ZNK5Ipopt10GenTMatrix5JcolsEv(ptr noundef nonnull align 8 dereferenceable(89) %21)
  store ptr %43, ptr %14, align 8
  %44 = getelementptr inbounds %"class.Ipopt::GenTMatrix", ptr %21, i32 0, i32 3
  %45 = load ptr, ptr %44, align 8
  store ptr %45, ptr %15, align 8
  %46 = load ptr, ptr %12, align 8
  %47 = call noundef ptr @_ZN5Ipopt11DenseVector6ValuesEv(ptr noundef nonnull align 8 dereferenceable(248) %46)
  store ptr %47, ptr %16, align 8
  %48 = load ptr, ptr %16, align 8
  %49 = getelementptr inbounds double, ptr %48, i32 -1
  store ptr %49, ptr %16, align 8
  %50 = load ptr, ptr %11, align 8
  %51 = call noundef zeroext i1 @_ZNK5Ipopt11DenseVector13IsHomogeneousEv(ptr noundef nonnull align 8 dereferenceable(248) %50)
  br i1 %51, label %52, label %80

52:                                               ; preds = %41
  %53 = load double, ptr %7, align 8
  %54 = load ptr, ptr %11, align 8
  %55 = call noundef double @_ZNK5Ipopt11DenseVector6ScalarEv(ptr noundef nonnull align 8 dereferenceable(248) %54)
  %56 = fmul double %53, %55
  store double %56, ptr %17, align 8
  store i32 0, ptr %18, align 4
  br label %57

57:                                               ; preds = %76, %52
  %58 = load i32, ptr %18, align 4
  %59 = call noundef i32 @_ZNK5Ipopt10GenTMatrix8NonzerosEv(ptr noundef nonnull align 8 dereferenceable(89) %21)
  %60 = icmp slt i32 %58, %59
  br i1 %60, label %61, label %79

61:                                               ; preds = %57
  %62 = load double, ptr %17, align 8
  %63 = load ptr, ptr %15, align 8
  %64 = load double, ptr %63, align 8
  %65 = load ptr, ptr %16, align 8
  %66 = load ptr, ptr %14, align 8
  %67 = load i32, ptr %66, align 4
  %68 = sext i32 %67 to i64
  %69 = getelementptr inbounds double, ptr %65, i64 %68
  %70 = load double, ptr %69, align 8
  %71 = call double @llvm.fmuladd.f64(double %62, double %64, double %70)
  store double %71, ptr %69, align 8
  %72 = load ptr, ptr %15, align 8
  %73 = getelementptr inbounds double, ptr %72, i32 1
  store ptr %73, ptr %15, align 8
  %74 = load ptr, ptr %14, align 8
  %75 = getelementptr inbounds i32, ptr %74, i32 1
  store ptr %75, ptr %14, align 8
  br label %76

76:                                               ; preds = %61
  %77 = load i32, ptr %18, align 4
  %78 = add nsw i32 %77, 1
  store i32 %78, ptr %18, align 4
  br label %57, !llvm.loop !7

79:                                               ; preds = %57
  br label %117

80:                                               ; preds = %41
  %81 = load ptr, ptr %11, align 8
  %82 = call noundef ptr @_ZNK5Ipopt11DenseVector6ValuesEv(ptr noundef nonnull align 8 dereferenceable(248) %81)
  store ptr %82, ptr %19, align 8
  %83 = load ptr, ptr %19, align 8
  %84 = getelementptr inbounds double, ptr %83, i32 -1
  store ptr %84, ptr %19, align 8
  store i32 0, ptr %20, align 4
  br label %85

85:                                               ; preds = %113, %80
  %86 = load i32, ptr %20, align 4
  %87 = call noundef i32 @_ZNK5Ipopt10GenTMatrix8NonzerosEv(ptr noundef nonnull align 8 dereferenceable(89) %21)
  %88 = icmp slt i32 %86, %87
  br i1 %88, label %89, label %116

89:                                               ; preds = %85
  %90 = load double, ptr %7, align 8
  %91 = load ptr, ptr %15, align 8
  %92 = load double, ptr %91, align 8
  %93 = fmul double %90, %92
  %94 = load ptr, ptr %19, align 8
  %95 = load ptr, ptr %13, align 8
  %96 = load i32, ptr %95, align 4
  %97 = sext i32 %96 to i64
  %98 = getelementptr inbounds double, ptr %94, i64 %97
  %99 = load double, ptr %98, align 8
  %100 = load ptr, ptr %16, align 8
  %101 = load ptr, ptr %14, align 8
  %102 = load i32, ptr %101, align 4
  %103 = sext i32 %102 to i64
  %104 = getelementptr inbounds double, ptr %100, i64 %103
  %105 = load double, ptr %104, align 8
  %106 = call double @llvm.fmuladd.f64(double %93, double %99, double %105)
  store double %106, ptr %104, align 8
  %107 = load ptr, ptr %15, align 8
  %108 = getelementptr inbounds double, ptr %107, i32 1
  store ptr %108, ptr %15, align 8
  %109 = load ptr, ptr %13, align 8
  %110 = getelementptr inbounds i32, ptr %109, i32 1
  store ptr %110, ptr %13, align 8
  %111 = load ptr, ptr %14, align 8
  %112 = getelementptr inbounds i32, ptr %111, i32 1
  store ptr %112, ptr %14, align 8
  br label %113

113:                                              ; preds = %89
  %114 = load i32, ptr %20, align 4
  %115 = add nsw i32 %114, 1
  store i32 %115, ptr %20, align 4
  br label %85, !llvm.loop !8

116:                                              ; preds = %85
  br label %117

117:                                              ; preds = %116, %79
  br label %118

118:                                              ; preds = %117, %38, %33, %32
  ret void
}