; Function Attrs: mustprogress uwtable
define void @_ZNK5Ipopt10GenTMatrix19TransMultVectorImplEdRKNS_6VectorEdRS1_(ptr nocapture noundef nonnull readonly align 8 dereferenceable(89) %0, double noundef %1, ptr nocapture noundef nonnull readonly align 8 dereferenceable(205) %2, double noundef %3, ptr noundef nonnull align 8 dereferenceable(205) %4) unnamed_addr #0 align 2 {
  %6 = fcmp une double %3, 0.000000e+00
  br i1 %6, label %7, label %8

7:                                                ; preds = %5
  tail call void @_ZN5Ipopt6Vector4ScalEd(ptr noundef nonnull align 8 dereferenceable(205) %4, double noundef %3)
  br label %12

8:                                                ; preds = %5
  %9 = load ptr, ptr %4, align 8
  %10 = getelementptr inbounds i8, ptr %9, i64 72
  %11 = load ptr, ptr %10, align 8
  tail call void %11(ptr noundef nonnull align 8 dereferenceable(205) %4, double noundef 0.000000e+00)
  tail call void @_ZN5Ipopt12TaggedObject13ObjectChangedEv(ptr noundef nonnull align 8 dereferenceable(56) %4)
  br label %12

12:                                               ; preds = %8, %7
  %13 = getelementptr inbounds i8, ptr %0, i64 72
  %14 = load ptr, ptr %13, align 8
  %15 = getelementptr inbounds i8, ptr %14, i64 20
  %16 = load i32, ptr %15, align 4
  %17 = icmp eq i32 %16, 0
  br i1 %17, label %.loopexit, label %18

18:                                               ; preds = %12
  %19 = getelementptr inbounds i8, ptr %14, i64 32
  %20 = load ptr, ptr %19, align 8
  %21 = getelementptr inbounds i8, ptr %14, i64 24
  %22 = load ptr, ptr %21, align 8
  %23 = getelementptr inbounds i8, ptr %0, i64 80
  %24 = load ptr, ptr %23, align 8
  %25 = getelementptr inbounds i8, ptr %4, i64 232
  %26 = load i8, ptr %25, align 8
  %27 = and i8 %26, 1
  %.not.i = icmp eq i8 %27, 0
  br i1 %.not.i, label %33, label %28

28:                                               ; preds = %18
  %29 = getelementptr inbounds i8, ptr %4, i64 233
  %30 = load i8, ptr %29, align 1
  %31 = and i8 %30, 1
  %.not1.i = icmp eq i8 %31, 0
  br i1 %.not1.i, label %33, label %32

32:                                               ; preds = %28
  tail call void @_ZN5Ipopt11DenseVector22set_values_from_scalarEv(ptr noundef nonnull align 8 dereferenceable(248) %4)
  br label %33

33:                                               ; preds = %32, %28, %18
  tail call void @_ZN5Ipopt12TaggedObject13ObjectChangedEv(ptr noundef nonnull align 8 dereferenceable(56) %4)
  store i8 1, ptr %25, align 8
  %34 = getelementptr inbounds i8, ptr %4, i64 233
  store i8 0, ptr %34, align 1
  %35 = getelementptr inbounds i8, ptr %4, i64 216
  %36 = load ptr, ptr %35, align 8
  %37 = icmp eq ptr %36, null
  br i1 %37, label %38, label %_ZN5Ipopt11DenseVector6ValuesEv.exit

38:                                               ; preds = %33
  %39 = getelementptr inbounds i8, ptr %4, i64 208
  %40 = load ptr, ptr %39, align 8
  %41 = getelementptr inbounds i8, ptr %40, i64 12
  %42 = load i32, ptr %41, align 4
  %43 = icmp sgt i32 %42, 0
  br i1 %43, label %44, label %_ZNK5Ipopt16DenseVectorSpace23AllocateInternalStorageEv.exit.i.i

44:                                               ; preds = %38
  %45 = zext nneg i32 %42 to i64
  %46 = shl nuw nsw i64 %45, 3
  %47 = tail call noalias noundef nonnull ptr @_Znam(i64 noundef %46) #12
  br label %_ZNK5Ipopt16DenseVectorSpace23AllocateInternalStorageEv.exit.i.i

_ZNK5Ipopt16DenseVectorSpace23AllocateInternalStorageEv.exit.i.i: ; preds = %44, %38
  %.0.i.i.i = phi ptr [ %47, %44 ], [ null, %38 ]
  store ptr %.0.i.i.i, ptr %35, align 8
  br label %_ZN5Ipopt11DenseVector6ValuesEv.exit

_ZN5Ipopt11DenseVector6ValuesEv.exit:             ; preds = %33, %_ZNK5Ipopt16DenseVectorSpace23AllocateInternalStorageEv.exit.i.i
  %48 = phi ptr [ %36, %33 ], [ %.0.i.i.i, %_ZNK5Ipopt16DenseVectorSpace23AllocateInternalStorageEv.exit.i.i ]
  %49 = getelementptr inbounds i8, ptr %48, i64 -8
  %50 = getelementptr inbounds i8, ptr %2, i64 233
  %51 = load i8, ptr %50, align 1
  %52 = and i8 %51, 1
  %.not = icmp eq i8 %52, 0
  %53 = load ptr, ptr %13, align 8
  %54 = getelementptr inbounds i8, ptr %53, i64 20
  %55 = load i32, ptr %54, align 4
  %56 = icmp sgt i32 %55, 0
  br i1 %.not, label %74, label %57

57:                                               ; preds = %_ZN5Ipopt11DenseVector6ValuesEv.exit
  %58 = getelementptr inbounds i8, ptr %2, i64 240
  %59 = load double, ptr %58, align 8
  %60 = fmul double %59, %1
  br i1 %56, label %.lr.ph, label %.loopexit

.lr.ph:                                           ; preds = %57, %.lr.ph
  %.03544 = phi i32 [ %69, %.lr.ph ], [ 0, %57 ]
  %.03743 = phi ptr [ %67, %.lr.ph ], [ %24, %57 ]
  %.03842 = phi ptr [ %68, %.lr.ph ], [ %22, %57 ]
  %61 = load double, ptr %.03743, align 8
  %62 = load i32, ptr %.03842, align 4
  %63 = sext i32 %62 to i64
  %64 = getelementptr inbounds double, ptr %49, i64 %63
  %65 = load double, ptr %64, align 8
  %66 = tail call double @llvm.fmuladd.f64(double %60, double %61, double %65)
  store double %66, ptr %64, align 8
  %67 = getelementptr inbounds i8, ptr %.03743, i64 8
  %68 = getelementptr inbounds i8, ptr %.03842, i64 4
  %69 = add nuw nsw i32 %.03544, 1
  %70 = load ptr, ptr %13, align 8
  %71 = getelementptr inbounds i8, ptr %70, i64 20
  %72 = load i32, ptr %71, align 4
  %73 = icmp slt i32 %69, %72
  br i1 %73, label %.lr.ph, label %.loopexit, !llvm.loop !7

74:                                               ; preds = %_ZN5Ipopt11DenseVector6ValuesEv.exit
  %75 = getelementptr inbounds i8, ptr %2, i64 216
  %76 = load ptr, ptr %75, align 8
  %77 = getelementptr inbounds i8, ptr %76, i64 -8
  br i1 %56, label %.lr.ph49, label %.loopexit

.lr.ph49:                                         ; preds = %74, %.lr.ph49
  %.048 = phi i32 [ %92, %.lr.ph49 ], [ 0, %74 ]
  %.03647 = phi ptr [ %90, %.lr.ph49 ], [ %20, %74 ]
  %.146 = phi ptr [ %89, %.lr.ph49 ], [ %24, %74 ]
  %.13945 = phi ptr [ %91, %.lr.ph49 ], [ %22, %74 ]
  %78 = load double, ptr %.146, align 8
  %79 = fmul double %78, %1
  %80 = load i32, ptr %.03647, align 4
  %81 = sext i32 %80 to i64
  %82 = getelementptr inbounds double, ptr %77, i64 %81
  %83 = load double, ptr %82, align 8
  %84 = load i32, ptr %.13945, align 4
  %85 = sext i32 %84 to i64
  %86 = getelementptr inbounds double, ptr %49, i64 %85
  %87 = load double, ptr %86, align 8
  %88 = tail call double @llvm.fmuladd.f64(double %79, double %83, double %87)
  store double %88, ptr %86, align 8
  %89 = getelementptr inbounds i8, ptr %.146, i64 8
  %90 = getelementptr inbounds i8, ptr %.03647, i64 4
  %91 = getelementptr inbounds i8, ptr %.13945, i64 4
  %92 = add nuw nsw i32 %.048, 1
  %93 = load ptr, ptr %13, align 8
  %94 = getelementptr inbounds i8, ptr %93, i64 20
  %95 = load i32, ptr %94, align 4
  %96 = icmp slt i32 %92, %95
  br i1 %96, label %.lr.ph49, label %.loopexit, !llvm.loop !8

.loopexit:                                        ; preds = %.lr.ph, %.lr.ph49, %57, %74, %12
  ret void
}